target datalayout = "e-m:e-p270:32:32-p271:32:32-p272:64:64-i64:64-i128:128-f80:128-n8:16:32:64-S128"
target triple = "x86_64-pc-linux-gnu"

%struct.ossl_param_st = type { ptr, i32, ptr, i64, i64 }

@.str.53 = private unnamed_addr constant [31 x i8] c"../openssl/test/evp_kdf_test.c\00", align 1
@.str.65 = private unnamed_addr constant [37 x i8] c"EVP_KDF_CTX_set_params(kctx, params)\00", align 1
@.str.66 = private unnamed_addr constant [45 x i8] c"EVP_KDF_derive(kctx, out, sizeof(out), NULL)\00", align 1
@.str.67 = private unnamed_addr constant [2 x i8] c"0\00", align 1
@.str.68 = private unnamed_addr constant [4 x i8] c"out\00", align 1
@.str.69 = private unnamed_addr constant [9 x i8] c"expected\00", align 1
@.str.71 = private unnamed_addr constant [5 x i8] c"salt\00", align 1
@.str.73 = private unnamed_addr constant [7 x i8] c"digest\00", align 1
@.str.76 = private unnamed_addr constant [4 x i8] c"mac\00", align 1
@.str.80 = private unnamed_addr constant [4 x i8] c"key\00", align 1
@.str.93 = private unnamed_addr constant [5 x i8] c"info\00", align 1
@.str.103 = private unnamed_addr constant [31 x i8] c"EVP_KDF_CTX_get_kdf_size(kctx)\00", align 1
@.str.104 = private unnamed_addr constant [9 x i8] c"SIZE_MAX\00", align 1
@.str.123 = private unnamed_addr constant [2 x i8] c"1\00", align 1
@.str.153 = private unnamed_addr constant [42 x i8] c"kctx = get_kdfbyname(OSSL_KDF_NAME_SSKDF)\00", align 1
@.str.154 = private unnamed_addr constant [6 x i8] c"SSKDF\00", align 1
@test_kdf_ss_kmac.z = internal global [14 x i8] c"\B7J\14\9A\16\15F\F8\C2\0B\06\ACN\D4", align 1
@test_kdf_ss_kmac.other = internal global [12 x i8] c"4\8A7\A2~\F1(/_\02\0D\CC", align 1
@test_kdf_ss_kmac.salt = internal global [16 x i8] c"68'\1C\CDh\A2]\C2N\CD\DD9\EF?\89", align 16
@test_kdf_ss_kmac.expected = internal constant [64 x i8] c"\E9\C1\84S\A0b\B5;\DB\FC\BBZ4\BD\B8\E5\E7\07\EE\BB]\D14BC\D8\CF\C2\C2\E63/\91\BD\A5\86\F3}\E4\8Ae\D4\C5\14\FD\EF\AA\1EgT\F3s\D28\E1\95\AE\15~\1D\E8\14\98\03", align 16
@.str.155 = private unnamed_addr constant [8 x i8] c"KMAC128\00", align 1
@.str.156 = private unnamed_addr constant [7 x i8] c"SHA256\00", align 1
@.str.157 = private unnamed_addr constant [7 x i8] c"maclen\00", align 1

; Function Attrs: nounwind uwtable
define internal ptr @get_kdfbyname_libctx(ptr noundef %0, ptr noundef %1) #0 {
  %3 = alloca ptr, align 8
  %4 = alloca ptr, align 8
  %5 = alloca ptr, align 8
  %6 = alloca ptr, align 8
  store ptr %0, ptr %3, align 8, !tbaa !11
  store ptr %1, ptr %4, align 8, !tbaa !18
  call void @llvm.lifetime.start.p0(i64 8, ptr %5) #6
  %7 = load ptr, ptr %3, align 8, !tbaa !11
  %8 = load ptr, ptr %4, align 8, !tbaa !18
  %9 = call ptr @EVP_KDF_fetch(ptr noundef %7, ptr noundef %8, ptr noundef null)
  store ptr %9, ptr %5, align 8, !tbaa !26
  call void @llvm.lifetime.start.p0(i64 8, ptr %6) #6
  %10 = load ptr, ptr %5, align 8, !tbaa !26
  %11 = call ptr @EVP_KDF_CTX_new(ptr noundef %10)
  store ptr %11, ptr %6, align 8, !tbaa !8
  %12 = load ptr, ptr %5, align 8, !tbaa !26
  call void @EVP_KDF_free(ptr noundef %12)
  %13 = load ptr, ptr %6, align 8, !tbaa !8
  call void @llvm.lifetime.end.p0(i64 8, ptr %6) #6
  call void @llvm.lifetime.end.p0(i64 8, ptr %5) #6
  ret ptr %13
}

; Function Attrs: nounwind uwtable
define internal ptr @get_kdfbyname(ptr noundef %0) #0 {
  %2 = alloca ptr, align 8
  store ptr %0, ptr %2, align 8, !tbaa !18
  %3 = load ptr, ptr %2, align 8, !tbaa !18
  %4 = call ptr @get_kdfbyname_libctx(ptr noundef null, ptr noundef %3)
  ret ptr %4
}

; Function Attrs: nounwind uwtable
define internal i32 @test_kdf_ss_kmac() #0 {
  %1 = alloca i32, align 4
  %2 = alloca ptr, align 8
  %3 = alloca [7 x %struct.ossl_param_st], align 16
  %4 = alloca ptr, align 8
  %5 = alloca [64 x i8], align 16
  %6 = alloca i64, align 8
  %7 = alloca %struct.ossl_param_st, align 8
  %8 = alloca %struct.ossl_param_st, align 8
  %9 = alloca %struct.ossl_param_st, align 8
  %10 = alloca %struct.ossl_param_st, align 8
  %11 = alloca %struct.ossl_param_st, align 8
  %12 = alloca %struct.ossl_param_st, align 8
  %13 = alloca %struct.ossl_param_st, align 8
  call void @llvm.lifetime.start.p0(i64 4, ptr %1) #6
  call void @llvm.lifetime.start.p0(i64 8, ptr %2) #6
  call void @llvm.lifetime.start.p0(i64 280, ptr %3) #6
  call void @llvm.lifetime.start.p0(i64 8, ptr %4) #6
  %14 = getelementptr inbounds [7 x %struct.ossl_param_st], ptr %3, i64 0, i64 0
  store ptr %14, ptr %4, align 8, !tbaa !13
  call void @llvm.lifetime.start.p0(i64 64, ptr %5) #6
  call void @llvm.lifetime.start.p0(i64 8, ptr %6) #6
  store i64 20, ptr %6, align 8, !tbaa !21
  %15 = load ptr, ptr %4, align 8, !tbaa !13
  %16 = getelementptr inbounds nuw %struct.ossl_param_st, ptr %15, i32 1
  store ptr %16, ptr %4, align 8, !tbaa !13
  call void @llvm.lifetime.start.p0(i64 40, ptr %7) #6
  call void @OSSL_PARAM_construct_utf8_string(ptr dead_on_unwind writable sret(%struct.ossl_param_st) align 8 %7, ptr noundef @.str.76, ptr noundef @.str.155, i64 noundef 0)
  call void @llvm.memcpy.p0.p0.i64(ptr align 8 %15, ptr align 8 %7, i64 40, i1 false), !tbaa.struct !17
  call void @llvm.lifetime.end.p0(i64 40, ptr %7) #6
  %17 = load ptr, ptr %4, align 8, !tbaa !13
  %18 = getelementptr inbounds nuw %struct.ossl_param_st, ptr %17, i32 1
  store ptr %18, ptr %4, align 8, !tbaa !13
  call void @llvm.lifetime.start.p0(i64 40, ptr %8) #6
  call void @OSSL_PARAM_construct_utf8_string(ptr dead_on_unwind writable sret(%struct.ossl_param_st) align 8 %8, ptr noundef @.str.73, ptr noundef @.str.156, i64 noundef 0)
  call void @llvm.memcpy.p0.p0.i64(ptr align 8 %17, ptr align 8 %8, i64 40, i1 false), !tbaa.struct !17
  call void @llvm.lifetime.end.p0(i64 40, ptr %8) #6
  %19 = load ptr, ptr %4, align 8, !tbaa !13
  %20 = getelementptr inbounds nuw %struct.ossl_param_st, ptr %19, i32 1
  store ptr %20, ptr %4, align 8, !tbaa !13
  call void @llvm.lifetime.start.p0(i64 40, ptr %9) #6
  call void @OSSL_PARAM_construct_octet_string(ptr dead_on_unwind writable sret(%struct.ossl_param_st) align 8 %9, ptr noundef @.str.80, ptr noundef @test_kdf_ss_kmac.z, i64 noundef 14)
  call void @llvm.memcpy.p0.p0.i64(ptr align 8 %19, ptr align 8 %9, i64 40, i1 false), !tbaa.struct !17
  call void @llvm.lifetime.end.p0(i64 40, ptr %9) #6
  %21 = load ptr, ptr %4, align 8, !tbaa !13
  %22 = getelementptr inbounds nuw %struct.ossl_param_st, ptr %21, i32 1
  store ptr %22, ptr %4, align 8, !tbaa !13
  call void @llvm.lifetime.start.p0(i64 40, ptr %10) #6
  call void @OSSL_PARAM_construct_octet_string(ptr dead_on_unwind writable sret(%struct.ossl_param_st) align 8 %10, ptr noundef @.str.93, ptr noundef @test_kdf_ss_kmac.other, i64 noundef 12)
  call void @llvm.memcpy.p0.p0.i64(ptr align 8 %21, ptr align 8 %10, i64 40, i1 false), !tbaa.struct !17
  call void @llvm.lifetime.end.p0(i64 40, ptr %10) #6
  %23 = load ptr, ptr %4, align 8, !tbaa !13
  %24 = getelementptr inbounds nuw %struct.ossl_param_st, ptr %23, i32 1
  store ptr %24, ptr %4, align 8, !tbaa !13
  call void @llvm.lifetime.start.p0(i64 40, ptr %11) #6
  call void @OSSL_PARAM_construct_octet_string(ptr dead_on_unwind writable sret(%struct.ossl_param_st) align 8 %11, ptr noundef @.str.71, ptr noundef @test_kdf_ss_kmac.salt, i64 noundef 16)
  call void @llvm.memcpy.p0.p0.i64(ptr align 8 %23, ptr align 8 %11, i64 40, i1 false), !tbaa.struct !17
  call void @llvm.lifetime.end.p0(i64 40, ptr %11) #6
  %25 = load ptr, ptr %4, align 8, !tbaa !13
  %26 = getelementptr inbounds nuw %struct.ossl_param_st, ptr %25, i32 1
  store ptr %26, ptr %4, align 8, !tbaa !13
  call void @llvm.lifetime.start.p0(i64 40, ptr %12) #6
  call void @OSSL_PARAM_construct_size_t(ptr dead_on_unwind writable sret(%struct.ossl_param_st) align 8 %12, ptr noundef @.str.157, ptr noundef %6)
  call void @llvm.memcpy.p0.p0.i64(ptr align 8 %25, ptr align 8 %12, i64 40, i1 false), !tbaa.struct !17
  call void @llvm.lifetime.end.p0(i64 40, ptr %12) #6
  %27 = load ptr, ptr %4, align 8, !tbaa !13
  call void @llvm.lifetime.start.p0(i64 40, ptr %13) #6
  call void @OSSL_PARAM_construct_end(ptr dead_on_unwind writable sret(%struct.ossl_param_st) align 8 %13)
  call void @llvm.memcpy.p0.p0.i64(ptr align 8 %27, ptr align 8 %13, i64 40, i1 false), !tbaa.struct !17
  call void @llvm.lifetime.end.p0(i64 40, ptr %13) #6
  %28 = call ptr @get_kdfbyname(ptr noundef @.str.154)
  store ptr %28, ptr %2, align 8, !tbaa !8
  %29 = call i32 @test_ptr(ptr noundef @.str.53, i32 noundef 1674, ptr noundef @.str.153, ptr noundef %28)
  %30 = icmp ne i32 %29, 0
  br i1 %30, label %31, label %60

31:                                               ; preds = %0
  %32 = load ptr, ptr %2, align 8, !tbaa !8
  %33 = call i64 @EVP_KDF_CTX_get_kdf_size(ptr noundef %32)
  %34 = call i32 @test_size_t_eq(ptr noundef @.str.53, i32 noundef 1675, ptr noundef @.str.103, ptr noundef @.str.67, i64 noundef %33, i64 noundef 0)
  %35 = icmp ne i32 %34, 0
  br i1 %35, label %36, label %60

36:                                               ; preds = %31
  %37 = load ptr, ptr %2, align 8, !tbaa !8
  %38 = getelementptr inbounds [7 x %struct.ossl_param_st], ptr %3, i64 0, i64 0
  %39 = call i32 @EVP_KDF_CTX_set_params(ptr noundef %37, ptr noundef %38)
  %40 = call i32 @test_int_eq(ptr noundef @.str.53, i32 noundef 1676, ptr noundef @.str.65, ptr noundef @.str.123, i32 noundef %39, i32 noundef 1)
  %41 = icmp ne i32 %40, 0
  br i1 %41, label %42, label %60

42:                                               ; preds = %36
  %43 = call i32 @fips_provider_version_lt(ptr noundef null, i32 noundef 3, i32 noundef 0, i32 noundef 8)
  %44 = icmp ne i32 %43, 0
  br i1 %44, label %50, label %45

45:                                               ; preds = %42
  %46 = load ptr, ptr %2, align 8, !tbaa !8
  %47 = call i64 @EVP_KDF_CTX_get_kdf_size(ptr noundef %46)
  %48 = call i32 @test_size_t_eq(ptr noundef @.str.53, i32 noundef 1679, ptr noundef @.str.103, ptr noundef @.str.104, i64 noundef %47, i64 noundef -1)
  %49 = icmp ne i32 %48, 0
  br i1 %49, label %50, label %60

50:                                               ; preds = %45, %42
  %51 = load ptr, ptr %2, align 8, !tbaa !8
  %52 = getelementptr inbounds [64 x i8], ptr %5, i64 0, i64 0
  %53 = call i32 @EVP_KDF_derive(ptr noundef %51, ptr noundef %52, i64 noundef 64, ptr noundef null)
  %54 = call i32 @test_int_gt(ptr noundef @.str.53, i32 noundef 1680, ptr noundef @.str.66, ptr noundef @.str.67, i32 noundef %53, i32 noundef 0)
  %55 = icmp ne i32 %54, 0
  br i1 %55, label %56, label %60

56:                                               ; preds = %50
  %57 = getelementptr inbounds [64 x i8], ptr %5, i64 0, i64 0
  %58 = call i32 @test_mem_eq(ptr noundef @.str.53, i32 noundef 1681, ptr noundef @.str.68, ptr noundef @.str.69, ptr noundef %57, i64 noundef 64, ptr noundef @test_kdf_ss_kmac.expected, i64 noundef 64)
  %59 = icmp ne i32 %58, 0
  br label %60

60:                                               ; preds = %56, %50, %45, %36, %31, %0
  %61 = phi i1 [ false, %50 ], [ false, %45 ], [ false, %36 ], [ false, %31 ], [ false, %0 ], [ %59, %56 ]
  %62 = zext i1 %61 to i32
  store i32 %62, ptr %1, align 4, !tbaa !4
  %63 = load ptr, ptr %2, align 8, !tbaa !8
  call void @EVP_KDF_CTX_free(ptr noundef %63)
  %64 = load i32, ptr %1, align 4, !tbaa !4
  call void @llvm.lifetime.end.p0(i64 8, ptr %6) #6
  call void @llvm.lifetime.end.p0(i64 64, ptr %5) #6
  call void @llvm.lifetime.end.p0(i64 8, ptr %4) #6
  call void @llvm.lifetime.end.p0(i64 280, ptr %3) #6
  call void @llvm.lifetime.end.p0(i64 8, ptr %2) #6
  call void @llvm.lifetime.end.p0(i64 4, ptr %1) #6
  ret i32 %64
}