; Function Attrs: nounwind uwtable
define internal range(i32 0, 2) i32 @test_kdf_ss_kmac() #0 {
  %1 = alloca [7 x %struct.ossl_param_st], align 16
  %2 = alloca [64 x i8], align 16
  %3 = alloca i64, align 8
  %4 = alloca %struct.ossl_param_st, align 8
  %5 = alloca %struct.ossl_param_st, align 8
  %6 = alloca %struct.ossl_param_st, align 8
  %7 = alloca %struct.ossl_param_st, align 8
  %8 = alloca %struct.ossl_param_st, align 8
  %9 = alloca %struct.ossl_param_st, align 8
  call void @llvm.lifetime.start.p0(i64 280, ptr nonnull %1) #6
  call void @llvm.lifetime.start.p0(i64 64, ptr nonnull %2) #6
  call void @llvm.lifetime.start.p0(i64 8, ptr nonnull %3) #6
  store i64 20, ptr %3, align 8, !tbaa !15
  %10 = getelementptr inbounds nuw i8, ptr %1, i64 40
  call void @OSSL_PARAM_construct_utf8_string(ptr dead_on_unwind nonnull writable sret(%struct.ossl_param_st) align 8 %1, ptr noundef nonnull @.str.76, ptr noundef nonnull @.str.155, i64 noundef 0) #6
  %11 = getelementptr inbounds nuw i8, ptr %1, i64 80
  call void @llvm.lifetime.start.p0(i64 40, ptr nonnull %4) #6
  call void @OSSL_PARAM_construct_utf8_string(ptr dead_on_unwind nonnull writable sret(%struct.ossl_param_st) align 8 %4, ptr noundef nonnull @.str.73, ptr noundef nonnull @.str.156, i64 noundef 0) #6
  call void @llvm.memcpy.p0.p0.i64(ptr noundef nonnull align 8 dereferenceable(40) %10, ptr noundef nonnull align 8 dereferenceable(40) %4, i64 40, i1 false), !tbaa.struct !10
  call void @llvm.lifetime.end.p0(i64 40, ptr nonnull %4) #6
  %12 = getelementptr inbounds nuw i8, ptr %1, i64 120
  call void @llvm.lifetime.start.p0(i64 40, ptr nonnull %5) #6
  call void @OSSL_PARAM_construct_octet_string(ptr dead_on_unwind nonnull writable sret(%struct.ossl_param_st) align 8 %5, ptr noundef nonnull @.str.80, ptr noundef nonnull @test_kdf_ss_kmac.z, i64 noundef 14) #6
  call void @llvm.memcpy.p0.p0.i64(ptr noundef nonnull align 16 dereferenceable(40) %11, ptr noundef nonnull align 8 dereferenceable(40) %5, i64 40, i1 false), !tbaa.struct !10
  call void @llvm.lifetime.end.p0(i64 40, ptr nonnull %5) #6
  %13 = getelementptr inbounds nuw i8, ptr %1, i64 160
  call void @llvm.lifetime.start.p0(i64 40, ptr nonnull %6) #6
  call void @OSSL_PARAM_construct_octet_string(ptr dead_on_unwind nonnull writable sret(%struct.ossl_param_st) align 8 %6, ptr noundef nonnull @.str.93, ptr noundef nonnull @test_kdf_ss_kmac.other, i64 noundef 12) #6
  call void @llvm.memcpy.p0.p0.i64(ptr noundef nonnull align 8 dereferenceable(40) %12, ptr noundef nonnull align 8 dereferenceable(40) %6, i64 40, i1 false), !tbaa.struct !10
  call void @llvm.lifetime.end.p0(i64 40, ptr nonnull %6) #6
  %14 = getelementptr inbounds nuw i8, ptr %1, i64 200
  call void @llvm.lifetime.start.p0(i64 40, ptr nonnull %7) #6
  call void @OSSL_PARAM_construct_octet_string(ptr dead_on_unwind nonnull writable sret(%struct.ossl_param_st) align 8 %7, ptr noundef nonnull @.str.71, ptr noundef nonnull @test_kdf_ss_kmac.salt, i64 noundef 16) #6
  call void @llvm.memcpy.p0.p0.i64(ptr noundef nonnull align 16 dereferenceable(40) %13, ptr noundef nonnull align 8 dereferenceable(40) %7, i64 40, i1 false), !tbaa.struct !10
  call void @llvm.lifetime.end.p0(i64 40, ptr nonnull %7) #6
  %15 = getelementptr inbounds nuw i8, ptr %1, i64 240
  call void @llvm.lifetime.start.p0(i64 40, ptr nonnull %8) #6
  call void @OSSL_PARAM_construct_size_t(ptr dead_on_unwind nonnull writable sret(%struct.ossl_param_st) align 8 %8, ptr noundef nonnull @.str.157, ptr noundef nonnull %3) #6
  call void @llvm.memcpy.p0.p0.i64(ptr noundef nonnull align 8 dereferenceable(40) %14, ptr noundef nonnull align 8 dereferenceable(40) %8, i64 40, i1 false), !tbaa.struct !10
  call void @llvm.lifetime.end.p0(i64 40, ptr nonnull %8) #6
  call void @llvm.lifetime.start.p0(i64 40, ptr nonnull %9) #6
  call void @OSSL_PARAM_construct_end(ptr dead_on_unwind nonnull writable sret(%struct.ossl_param_st) align 8 %9) #6
  call void @llvm.memcpy.p0.p0.i64(ptr noundef nonnull align 16 dereferenceable(40) %15, ptr noundef nonnull align 8 dereferenceable(40) %9, i64 40, i1 false), !tbaa.struct !10
  call void @llvm.lifetime.end.p0(i64 40, ptr nonnull %9) #6
  %16 = call ptr @EVP_KDF_fetch(ptr noundef null, ptr noundef nonnull @.str.154, ptr noundef null) #6
  %17 = call ptr @EVP_KDF_CTX_new(ptr noundef %16) #6
  call void @EVP_KDF_free(ptr noundef %16) #6
  %18 = call i32 @test_ptr(ptr noundef nonnull @.str.53, i32 noundef 1674, ptr noundef nonnull @.str.153, ptr noundef %17) #6
  %.not = icmp eq i32 %18, 0
  br i1 %.not, label %37, label %19

19:                                               ; preds = %0
  %20 = call i64 @EVP_KDF_CTX_get_kdf_size(ptr noundef %17) #6
  %21 = call i32 @test_size_t_eq(ptr noundef nonnull @.str.53, i32 noundef 1675, ptr noundef nonnull @.str.103, ptr noundef nonnull @.str.67, i64 noundef %20, i64 noundef 0) #6
  %.not12 = icmp eq i32 %21, 0
  br i1 %.not12, label %37, label %22

22:                                               ; preds = %19
  %23 = call i32 @EVP_KDF_CTX_set_params(ptr noundef %17, ptr noundef nonnull %1) #6
  %24 = call i32 @test_int_eq(ptr noundef nonnull @.str.53, i32 noundef 1676, ptr noundef nonnull @.str.65, ptr noundef nonnull @.str.123, i32 noundef %23, i32 noundef 1) #6
  %.not13 = icmp eq i32 %24, 0
  br i1 %.not13, label %37, label %25

25:                                               ; preds = %22
  %26 = call i32 @fips_provider_version_lt(ptr noundef null, i32 noundef 3, i32 noundef 0, i32 noundef 8) #6
  %.not14 = icmp eq i32 %26, 0
  br i1 %.not14, label %27, label %30

27:                                               ; preds = %25
  %28 = call i64 @EVP_KDF_CTX_get_kdf_size(ptr noundef %17) #6
  %29 = call i32 @test_size_t_eq(ptr noundef nonnull @.str.53, i32 noundef 1679, ptr noundef nonnull @.str.103, ptr noundef nonnull @.str.104, i64 noundef %28, i64 noundef -1) #6
  %.not15 = icmp eq i32 %29, 0
  br i1 %.not15, label %37, label %30

30:                                               ; preds = %27, %25
  %31 = call i32 @EVP_KDF_derive(ptr noundef %17, ptr noundef nonnull %2, i64 noundef 64, ptr noundef null) #6
  %32 = call i32 @test_int_gt(ptr noundef nonnull @.str.53, i32 noundef 1680, ptr noundef nonnull @.str.66, ptr noundef nonnull @.str.67, i32 noundef %31, i32 noundef 0) #6
  %.not16 = icmp eq i32 %32, 0
  br i1 %.not16, label %37, label %33

33:                                               ; preds = %30
  %34 = call i32 @test_mem_eq(ptr noundef nonnull @.str.53, i32 noundef 1681, ptr noundef nonnull @.str.68, ptr noundef nonnull @.str.69, ptr noundef nonnull %2, i64 noundef 64, ptr noundef nonnull @test_kdf_ss_kmac.expected, i64 noundef 64) #6
  %35 = icmp ne i32 %34, 0
  %36 = zext i1 %35 to i32
  br label %37

37:                                               ; preds = %33, %30, %27, %22, %19, %0
  %38 = phi i32 [ 0, %30 ], [ 0, %27 ], [ 0, %22 ], [ 0, %19 ], [ 0, %0 ], [ %36, %33 ]
  call void @EVP_KDF_CTX_free(ptr noundef %17) #6
  call void @llvm.lifetime.end.p0(i64 8, ptr nonnull %3) #6
  call void @llvm.lifetime.end.p0(i64 64, ptr nonnull %2) #6
  call void @llvm.lifetime.end.p0(i64 280, ptr nonnull %1) #6
  ret i32 %38
}